target datalayout = "e-m:e-p270:32:32-p271:32:32-p272:64:64-i64:64-i128:128-f80:128-n8:16:32:64-S128"
target triple = "x86_64-pc-linux-gnu"

%"class.std::vector" = type { %"struct.std::_Vector_base" }
%"struct.std::_Vector_base" = type { %"struct.std::_Vector_base<pkpy::PyObject *, std::allocator<pkpy::PyObject *>>::_Vector_impl" }
%"struct.std::_Vector_base<pkpy::PyObject *, std::allocator<pkpy::PyObject *>>::_Vector_impl" = type { %"struct.std::_Vector_base<pkpy::PyObject *, std::allocator<pkpy::PyObject *>>::_Vector_impl_data" }
%"struct.std::_Vector_base<pkpy::PyObject *, std::allocator<pkpy::PyObject *>>::_Vector_impl_data" = type { ptr, ptr, ptr }
%"struct.pkpy::ManagedHeap" = type <{ %"class.std::vector", %"class.std::vector", ptr, ptr, ptr, i32, i32, i32, [4 x i8] }>

; Function Attrs: mustprogress nounwind uwtable
define linkonce_odr noundef i64 @_ZNKSt6vectorIPN4pkpy8PyObjectESaIS2_EE4sizeEv(ptr noundef nonnull align 8 dereferenceable(24) %0) #5 comdat align 2 {
  %2 = alloca ptr, align 8
  store ptr %0, ptr %2, align 8
  %3 = load ptr, ptr %2, align 8
  %4 = getelementptr inbounds %"struct.std::_Vector_base", ptr %3, i32 0, i32 0
  %5 = getelementptr inbounds %"struct.std::_Vector_base<pkpy::PyObject *, std::allocator<pkpy::PyObject *>>::_Vector_impl_data", ptr %4, i32 0, i32 1
  %6 = load ptr, ptr %5, align 8
  %7 = getelementptr inbounds %"struct.std::_Vector_base", ptr %3, i32 0, i32 0
  %8 = getelementptr inbounds %"struct.std::_Vector_base<pkpy::PyObject *, std::allocator<pkpy::PyObject *>>::_Vector_impl_data", ptr %7, i32 0, i32 0
  %9 = load ptr, ptr %8, align 8
  %10 = ptrtoint ptr %6 to i64
  %11 = ptrtoint ptr %9 to i64
  %12 = sub i64 %10, %11
  %13 = sdiv exact i64 %12, 8
  ret i64 %13
}

; Function Attrs: mustprogress uwtable
define void @_ZN4pkpy11ManagedHeap13_auto_collectEv(ptr noundef nonnull align 8 dereferenceable(84) %0) #4 align 2 {
  %2 = alloca ptr, align 8
  store ptr %0, ptr %2, align 8
  %3 = load ptr, ptr %2, align 8
  %4 = getelementptr inbounds %"struct.pkpy::ManagedHeap", ptr %3, i32 0, i32 7
  %5 = load i32, ptr %4, align 8
  %6 = icmp sgt i32 %5, 0
  br i1 %6, label %7, label %8

7:                                                ; preds = %1
  br label %21

8:                                                ; preds = %1
  %9 = getelementptr inbounds %"struct.pkpy::ManagedHeap", ptr %3, i32 0, i32 6
  store i32 0, ptr %9, align 4
  %10 = call noundef i32 @_ZN4pkpy11ManagedHeap7collectEv(ptr noundef nonnull align 8 dereferenceable(84) %3)
  %11 = getelementptr inbounds %"struct.pkpy::ManagedHeap", ptr %3, i32 0, i32 1
  %12 = call noundef i64 @_ZNKSt6vectorIPN4pkpy8PyObjectESaIS2_EE4sizeEv(ptr noundef nonnull align 8 dereferenceable(24) %11) #3
  %13 = mul i64 %12, 2
  %14 = trunc i64 %13 to i32
  %15 = getelementptr inbounds %"struct.pkpy::ManagedHeap", ptr %3, i32 0, i32 5
  store i32 %14, ptr %15, align 8
  %16 = getelementptr inbounds %"struct.pkpy::ManagedHeap", ptr %3, i32 0, i32 5
  %17 = load i32, ptr %16, align 8
  %18 = icmp slt i32 %17, 32768
  br i1 %18, label %19, label %21

19:                                               ; preds = %8
  %20 = getelementptr inbounds %"struct.pkpy::ManagedHeap", ptr %3, i32 0, i32 5
  store i32 32768, ptr %20, align 8
  br label %21

21:                                               ; preds = %19, %8, %7
  ret void
}