; Function Attrs: mustprogress uwtable
define void @_ZN4pkpy11ManagedHeap13_auto_collectEv(ptr noundef nonnull align 8 dereferenceable(84) %0) local_unnamed_addr #3 align 2 {
  %2 = getelementptr inbounds i8, ptr %0, i64 80
  %3 = load i32, ptr %2, align 8
  %4 = icmp sgt i32 %3, 0
  br i1 %4, label %17, label %5

5:                                                ; preds = %1
  %6 = getelementptr inbounds i8, ptr %0, i64 76
  store i32 0, ptr %6, align 4
  %7 = tail call noundef i32 @_ZN4pkpy11ManagedHeap7collectEv(ptr noundef nonnull align 8 dereferenceable(84) %0)
  %8 = getelementptr inbounds i8, ptr %0, i64 24
  %9 = getelementptr inbounds i8, ptr %0, i64 32
  %10 = load ptr, ptr %9, align 8
  %11 = load ptr, ptr %8, align 8
  %12 = ptrtoint ptr %10 to i64
  %13 = ptrtoint ptr %11 to i64
  %14 = sub i64 %12, %13
  %sh.diff = lshr i64 %14, 2
  %tr.sh.diff = trunc i64 %sh.diff to i32
  %15 = and i32 %tr.sh.diff, -2
  %16 = getelementptr inbounds i8, ptr %0, i64 72
  %spec.store.select = tail call i32 @llvm.smax.i32(i32 %15, i32 32768)
  store i32 %spec.store.select, ptr %16, align 8
  br label %17

17:                                               ; preds = %5, %1
  ret void
}